; Function Attrs: mustprogress uwtable
define void @_ZNK20ToolbarEntryMimeData9labelTextEv(ptr dead_on_unwind noalias writable sret(%class.QString) align 8 %0, ptr noundef nonnull align 8 dereferenceable(68) %1) unnamed_addr #2 align 2 personality ptr @__gxx_personality_v0 {
  %3 = alloca %class.QString, align 16
  %4 = alloca %class.QString, align 16
  call void @llvm.lifetime.start.p0(i64 24, ptr nonnull %3)
  call void @_ZN7QString8fromUtf8E14QByteArrayView(ptr dead_on_unwind nonnull writable sret(%class.QString) align 8 %3, i64 2, ptr nonnull @.str.7)
  %5 = load <2 x ptr>, ptr %3, align 16
  store <2 x ptr> %5, ptr %4, align 16
  %6 = getelementptr inbounds i8, ptr %4, i64 16
  %7 = getelementptr inbounds i8, ptr %3, i64 16
  %8 = load i64, ptr %7, align 16
  store i64 %8, ptr %6, align 16
  call void @llvm.lifetime.end.p0(i64 24, ptr nonnull %3)
  %9 = getelementptr inbounds i8, ptr %1, i64 16
  invoke void @_ZNK7QString3argERKS_i5QChar(ptr dead_on_unwind writable sret(%class.QString) align 8 %0, ptr noundef nonnull align 8 dereferenceable(24) %4, ptr noundef nonnull align 8 dereferenceable(24) %9, i32 noundef 0, i16 32)
          to label %10 unwind label %15

10:                                               ; preds = %2
  %11 = load ptr, ptr %4, align 16
  %.not.i.i.i = icmp eq ptr %11, null
  br i1 %.not.i.i.i, label %_ZN7QStringD2Ev.exit, label %_ZN17QArrayDataPointerIDsE5derefEv.exit.i.i

_ZN17QArrayDataPointerIDsE5derefEv.exit.i.i:      ; preds = %10
  %12 = atomicrmw sub ptr %11, i32 1 seq_cst, align 4
  %.not.i.i = icmp eq i32 %12, 1
  br i1 %.not.i.i, label %13, label %_ZN7QStringD2Ev.exit

13:                                               ; preds = %_ZN17QArrayDataPointerIDsE5derefEv.exit.i.i
  %14 = load ptr, ptr %4, align 16
  call void @_ZN10QArrayData10deallocateEPS_xx(ptr noundef %14, i64 noundef 2, i64 noundef 8) #11
  br label %_ZN7QStringD2Ev.exit

_ZN7QStringD2Ev.exit:                             ; preds = %10, %_ZN17QArrayDataPointerIDsE5derefEv.exit.i.i, %13
  ret void

15:                                               ; preds = %2
  %16 = landingpad { ptr, i32 }
          cleanup
  %17 = load ptr, ptr %4, align 16
  %.not.i.i.i2 = icmp eq ptr %17, null
  br i1 %.not.i.i.i2, label %_ZN7QStringD2Ev.exit5, label %_ZN17QArrayDataPointerIDsE5derefEv.exit.i.i3

_ZN17QArrayDataPointerIDsE5derefEv.exit.i.i3:     ; preds = %15
  %18 = atomicrmw sub ptr %17, i32 1 seq_cst, align 4
  %.not.i.i4 = icmp eq i32 %18, 1
  br i1 %.not.i.i4, label %19, label %_ZN7QStringD2Ev.exit5

19:                                               ; preds = %_ZN17QArrayDataPointerIDsE5derefEv.exit.i.i3
  %20 = load ptr, ptr %4, align 16
  call void @_ZN10QArrayData10deallocateEPS_xx(ptr noundef %20, i64 noundef 2, i64 noundef 8) #11
  br label %_ZN7QStringD2Ev.exit5

_ZN7QStringD2Ev.exit5:                            ; preds = %15, %_ZN17QArrayDataPointerIDsE5derefEv.exit.i.i3, %19
  resume { ptr, i32 } %16
}